target datalayout = "e-m:e-p270:32:32-p271:32:32-p272:64:64-i64:64-i128:128-f80:128-n8:16:32:64-S128"
target triple = "x86_64-pc-linux-gnu"

; Function Attrs: nounwind uwtable
define ptr @ossl_sm2_do_sign(ptr noundef %0, ptr noundef %1, ptr noundef %2, i64 noundef %3, ptr noundef %4, i64 noundef %5) #0 {
  %7 = alloca ptr, align 8
  %8 = alloca ptr, align 8
  %9 = alloca ptr, align 8
  %10 = alloca i64, align 8
  %11 = alloca ptr, align 8
  %12 = alloca i64, align 8
  %13 = alloca ptr, align 8
  %14 = alloca ptr, align 8
  store ptr %0, ptr %7, align 8, !tbaa !12
  store ptr %1, ptr %8, align 8, !tbaa !8
  store ptr %2, ptr %9, align 8, !tbaa !3
  store i64 %3, ptr %10, align 8, !tbaa !10
  store ptr %4, ptr %11, align 8, !tbaa !3
  store i64 %5, ptr %12, align 8, !tbaa !10
  call void @llvm.lifetime.start.p0(i64 8, ptr %13) #4
  store ptr null, ptr %13, align 8, !tbaa !24
  call void @llvm.lifetime.start.p0(i64 8, ptr %14) #4
  store ptr null, ptr %14, align 8, !tbaa !29
  %15 = load ptr, ptr %8, align 8, !tbaa !8
  %16 = load ptr, ptr %7, align 8, !tbaa !12
  %17 = load ptr, ptr %9, align 8, !tbaa !3
  %18 = load i64, ptr %10, align 8, !tbaa !10
  %19 = load ptr, ptr %11, align 8, !tbaa !3
  %20 = load i64, ptr %12, align 8, !tbaa !10
  %21 = call ptr @sm2_compute_msg_hash(ptr noundef %15, ptr noundef %16, ptr noundef %17, i64 noundef %18, ptr noundef %19, i64 noundef %20)
  store ptr %21, ptr %13, align 8, !tbaa !24
  %22 = load ptr, ptr %13, align 8, !tbaa !24
  %23 = icmp eq ptr %22, null
  br i1 %23, label %24, label %25

24:                                               ; preds = %6
  br label %29

25:                                               ; preds = %6
  %26 = load ptr, ptr %7, align 8, !tbaa !12
  %27 = load ptr, ptr %13, align 8, !tbaa !24
  %28 = call ptr @sm2_sig_gen(ptr noundef %26, ptr noundef %27)
  store ptr %28, ptr %14, align 8, !tbaa !29
  br label %29

29:                                               ; preds = %25, %24
  %30 = load ptr, ptr %13, align 8, !tbaa !24
  call void @BN_free(ptr noundef %30)
  %31 = load ptr, ptr %14, align 8, !tbaa !29
  call void @llvm.lifetime.end.p0(i64 8, ptr %14) #4
  call void @llvm.lifetime.end.p0(i64 8, ptr %13) #4
  ret ptr %31
}