; Function Attrs: nounwind uwtable
define ptr @ossl_sm2_do_sign(ptr noundef %0, ptr noundef %1, ptr noundef %2, i64 noundef %3, ptr noundef %4, i64 noundef %5) local_unnamed_addr #0 {
  %7 = tail call fastcc ptr @sm2_compute_msg_hash(ptr noundef %1, ptr noundef %0, ptr noundef %2, i64 noundef %3, ptr noundef %4, i64 noundef %5)
  %8 = icmp eq ptr %7, null
  br i1 %8, label %11, label %9

9:                                                ; preds = %6
  %10 = tail call fastcc ptr @sm2_sig_gen(ptr noundef %0, ptr noundef %7)
  br label %11

11:                                               ; preds = %6, %9
  %.0 = phi ptr [ null, %6 ], [ %10, %9 ]
  tail call void @BN_free(ptr noundef %7) #4
  ret ptr %.0
}